Microchip MPLAB XC8 Compiler V1.37 ()

Linker command line:

-W-3 --edf=C:\Program Files (x86)\Microchip\xc8\v1.37\dat\en_msgs.txt -cs \
  -h+dist/default/production\PetitModbus.X.production.sym \
  --cmf=dist/default/production\PetitModbus.X.production.cmf -z -Q18F2431 \
  -oC:\Users\JEREMY~1\AppData\Local\Temp\s388.2 \
  -Mdist/default/production/PetitModbus.X.production.map -E1 -ver=XC8 \
  -ASTACK=0E8h-02ffh -pstack=STACK -ACODE=00h-03FFFh -ACONST=00h-03FFFh \
  -ASMALLCONST=0300h-03FFhx61 -AMEDIUMCONST=0300h-03FFFh -ACOMRAM=01h-05Fh \
  -AABS1=00h-02FFh -ABIGRAM=01h-02FFh -ARAM=060h-0FFh,0100h-01FFhx2 \
  -ABANK0=060h-0FFh -ABANK1=0100h-01FFh -ABANK2=0200h-02FFh \
  -ASFR=0F60h-0FFFh \
  -preset_vec=00h,intcode=08h,intcodelo,powerup,init,end_init \
  -pramtop=0300h -psmallconst=SMALLCONST -pmediumconst=MEDIUMCONST \
  -pconst=CONST -AFARRAM=00h-00h -ACONFIG=0300000h-030000Dh -pconfig=CONFIG \
  -AIDLOC=0200000h-0200007h -pidloc=IDLOC -AEEDATA=0F00000h-0F000FFh \
  -peeprom_data=EEDATA \
  -prdata=COMRAM,nvrram=COMRAM,nvbit=COMRAM,rbss=COMRAM,rbit=COMRAM \
  -pfarbss=FARRAM,fardata=FARRAM,nvFARRAM=FARRAM \
  -pintsave_regs=BIGRAM,bigbss=BIGRAM,bigdata=BIGRAM -pbss=RAM \
  -pidata=CODE,irdata=CODE,ibigdata=CODE,ifardata=CODE -prparam=COMRAM \
  C:\Users\JEREMY~1\AppData\Local\Temp\s388.obj \
  dist/default/production\PetitModbus.X.production.obj 

Object code version is 3.11

Machine type is 18F2431

Call graph: (short form)




                Name                               Link     Load   Length Selector   Space Scale
C:\Users\JEREMY~1\AppData\Local\Temp\s388.obj
                end_init                             A4       A4        4        4       0
                reset_vec                             0        0        4        0       0
                idloc                            200000   200000        8   200000       0
                config                           300000   300000        E   300000       0
dist/default/production\PetitModbus.X.production.obj
                intcode                               8        8       9C        4       0
                temp                                 4D       4D        1        1       1
                text25                              9BC      9BC        6        4       0
                text24                              8A0      8A0       2C        4       0
                text22                              922      922       1A        4       0
                text21                              9A6      9A6        A        4       0
                text20                              93C      93C       18        4       0
                text19                              9B6      9B6        6        4       0
                text18                              954      954       16        4       0
                text17                              9B0      9B0        6        4       0
                text16                              97E      97E       10        4       0
                text15                              96A      96A       14        4       0
                text14                              8EA      8EA       1E        4       0
                text13                              1F0      1F0      128        4       0
                text12                              318      318       FE        4       0
                text11                              680      680       B0        4       0
                text10                              99A      99A        C        4       0
                text9                               5D0      5D0       B0        4       0
                text8                               730      730       A8        4       0
                text7                               908      908       1A        4       0
                text6                                A8       A8      148        4       0
                text5                               98E      98E        C        4       0
                text4                               872      872       2E        4       0
                text3                               8CC      8CC       1E        4       0
                text2                               416      416       DE        4       0
                text1                               7D8      7D8       54        4       0
                text0                               4F4      4F4       DC        4       0
                cstackCOMRAM                          1        1       25        1       1
                bssBANK0                             60       60       88       60       1
                dataCOMRAM                           48       48        5        1       1
                bssCOMRAM                            26       26       22        1       1
                cinit                               82C      82C       46        4       0
                idataCOMRAM                         9C2      9C2        5        4       0

TOTAL           Name                               Link     Load   Length     Space
        CLASS   STACK          

        CLASS   CODE           
                end_init                             A4       A4        4         0
                intcode                               8        8       9C         0
                reset_vec                             0        0        4         0
                text25                              9BC      9BC        6         0
                text24                              8A0      8A0       2C         0
                text22                              922      922       1A         0
                text21                              9A6      9A6        A         0
                text20                              93C      93C       18         0
                text19                              9B6      9B6        6         0
                text18                              954      954       16         0
                text17                              9B0      9B0        6         0
                text16                              97E      97E       10         0
                text15                              96A      96A       14         0
                text14                              8EA      8EA       1E         0
                text13                              1F0      1F0      128         0
                text12                              318      318       FE         0
                text11                              680      680       B0         0
                text10                              99A      99A        C         0
                text9                               5D0      5D0       B0         0
                text8                               730      730       A8         0
                text7                               908      908       1A         0
                text6                                A8       A8      148         0
                text5                               98E      98E        C         0
                text4                               872      872       2E         0
                text3                               8CC      8CC       1E         0
                text2                               416      416       DE         0
                text1                               7D8      7D8       54         0
                text0                               4F4      4F4       DC         0
                cinit                               82C      82C       46         0
                idataCOMRAM                         9C2      9C2        5         0

        CLASS   CONST          

        CLASS   SMALLCONST     

        CLASS   MEDIUMCONST    

        CLASS   COMRAM         
                temp                                 4D       4D        1         1
                cstackCOMRAM                          1        1       25         1
                dataCOMRAM                           48       48        5         1
                bssCOMRAM                            26       26       22         1

        CLASS   ABS1           

        CLASS   BIGRAM         

        CLASS   RAM            

        CLASS   BANK0          
                bssBANK0                             60       60       88         1

        CLASS   BANK1          

        CLASS   BANK2          

        CLASS   SFR            

        CLASS   FARRAM         

        CLASS   CONFIG         
                config                           300000   300000        E         0

        CLASS   IDLOC          
                idloc                            200000   200000        8         0

        CLASS   EEDATA         



SEGMENTS        Name                           Load    Length   Top    Selector   Space  Class

                reset_vec                      000000  000004  000004         0       0  CODE    
                cstackCOMRAM                   000001  00004D  00004E         1       1  COMRAM  
                intcode                        000008  0009BF  0009C7         4       0  CODE    
                bssBANK0                       000060  000088  0000E8        60       1  BANK0   
                idloc                          200000  000008  200008    200000       0  IDLOC   
                config                         300000  00000E  30000E    300000       0  CONFIG  


UNUSED ADDRESS RANGES

        Name                Unused          Largest block    Delta
        BANK0            0000E8-0000FF               18
        BANK1            000100-0001FF              100
        BANK2            000200-0002FF              100
        BIGRAM           00004E-00005F               12
                         0000E8-0002FF              218
        CODE             000004-000007                4
                         0009C7-003FFF             3639
        COMRAM           00004E-00005F               12
        CONST            000004-000007                4
                         0009C7-003FFF             3639
        EEDATA           F00000-F000FF              100
        MEDIUMCONST      0009C7-003FFF             3639
        RAM              0000E8-0002FF              100
        SFR              000F60-000FFF               A0
        SMALLCONST       0009C7-003FFF              100
        STACK            0000E8-0002FF              218

                                  Symbol Table

CheckPetitModbusBufferComplete@PetitExpectedReceiveCount        cstackCOMRAM 000012
HandleMPetitodbusWriteMultipleRegisters@Petit_ByteCount         cstackCOMRAM 000019
HandleMPetitodbusWriteMultipleRegisters@Petit_NumberOfRegisters cstackCOMRAM 00001E
HandleMPetitodbusWriteMultipleRegisters@Petit_StartAddress      cstackCOMRAM 00001C
HandleMPetitodbusWriteMultipleRegisters@Petit_Value             cstackCOMRAM 00001A
HandleMPetitodbusWriteMultipleRegisters@Petit_i                 cstackCOMRAM 000020
HandlePetitModbusError@ErrorCode                                cstackCOMRAM 000010
HandlePetitModbusReadHoldingRegisters@Petit_CurrentData         cstackCOMRAM 000013
HandlePetitModbusReadHoldingRegisters@Petit_NumberOfRegisters   cstackCOMRAM 000017
HandlePetitModbusReadHoldingRegisters@Petit_StartAddress        cstackCOMRAM 000015
HandlePetitModbusReadHoldingRegisters@Petit_i                   cstackCOMRAM 000019
HandlePetitModbusWriteSingleRegister@Petit_Address              cstackCOMRAM 000015
HandlePetitModbusWriteSingleRegister@Petit_Value                cstackCOMRAM 000013
HandlePetitModbusWriteSingleRegister@Petit_i                    cstackCOMRAM 000017
InitPetitModbus@PetitModbusSlaveAddress                         cstackCOMRAM 000010
PetitModBus_UART_Putch@c                                        cstackCOMRAM 000010
PetitModBus_UART_String@DummyCounter                            cstackCOMRAM 000015
PetitModBus_UART_String@Length                                  cstackCOMRAM 000013
PetitModBus_UART_String@s                                       cstackCOMRAM 000011
Petit_CRC16@CRC                                                 cstackCOMRAM 000010
Petit_CRC16@Data                                                cstackCOMRAM 000018
Petit_CRC16@i                                                   cstackCOMRAM 000019
Petit_RxDataAvailable@Result                                    cstackCOMRAM 000010
Petit_RxRTU@Petit_ReceiveBufferControl                          cstackCOMRAM 000022
Petit_RxRTU@Petit_i                                             cstackCOMRAM 000023
ReceiveInterrupt@Data                                           cstackCOMRAM 000001
_CheckPetitModbusBufferComplete                                 text9        0005D0
_GIE                                                            (abs)        007F97
_HandleMPetitodbusWriteMultipleRegisters                        text13       0001F0
_HandlePetitModbusError                                         text14       0008EA
_HandlePetitModbusReadHoldingRegisters                          text12       000318
_HandlePetitModbusWriteSingleRegister                           text11       000680
_InitIO                                                         text22       000922
_InitOSC                                                        text21       0009A6
_InitPetitModbus                                                text16       00097E
_InitTMR1                                                       text20       00093C
_InitUART                                                       text18       000954
_LATA                                                           (abs)        000F89
_LATB                                                           (abs)        000F8A
_LATC                                                           (abs)        000F8B
_LATCbits                                                       (abs)        000F8B
_OSCCONbits                                                     (abs)        000FD3
_PEIE                                                           (abs)        007F96
_PETITMODBUS_SLAVE_ADDRESS                                      dataCOMRAM   000048
_PORTCbits                                                      (abs)        000F82
_PetitModBus_TIMER_Initialise                                   text19       0009B6
_PetitModBus_TimerValues                                        text25       0009BC
_PetitModBus_UART_Initialise                                    text17       0009B0
_PetitModBus_UART_Putch                                         text5        00098E
_PetitModBus_UART_String                                        text4        000872
_PetitModbusTimerValue                                          bssCOMRAM    00003C
_PetitReceiveBuffer                                             bssBANK0     0000A8
_PetitReceiveCounter                                            bssCOMRAM    000044
_PetitRegisters                                                 bssCOMRAM    000026
_PetitSendMessage                                               text15       00096A
_Petit_CRC16                                                    text8        000730
_Petit_CheckRxTimeout                                           text7        000908
_Petit_DoSlaveTX                                                text3        0008CC
_Petit_RxDataAvailable                                          text10       00099A
_Petit_RxRTU                                                    text6        0000A8
_Petit_Rx_CRC16                                                 dataCOMRAM   000049
_Petit_Rx_Data                                                  bssBANK0     000060
_Petit_Rx_Data_Available                                        bssCOMRAM    000045
_Petit_Rx_State                                                 bssCOMRAM    000046
_Petit_TxRTU                                                    text2        000416
_Petit_Tx_Buf                                                   bssBANK0     0000C8
_Petit_Tx_Buf_Size                                              bssCOMRAM    00003E
_Petit_Tx_CRC16                                                 dataCOMRAM   00004B
_Petit_Tx_Current                                               bssCOMRAM    000040
_Petit_Tx_Data                                                  bssBANK0     000084
_Petit_Tx_State                                                 bssCOMRAM    000047
_ProcessPetitModbus                                             text1        0007D8
_RCIE                                                           (abs)        007CED
_RCIF                                                           (abs)        007CF5
_RCREG                                                          (abs)        000FAE
_RCSTA                                                          (abs)        000FAB
_ReceiveInterrupt                                               text24       0008A0
_SPBRG                                                          (abs)        000FAF
_T1CONbits                                                      (abs)        000FCD
_TMR1H                                                          (abs)        000FCF
_TMR1IE                                                         (abs)        007CE8
_TMR1IF                                                         (abs)        007CF0
_TMR1L                                                          (abs)        000FCE
_TRISA                                                          (abs)        000F92
_TRISB                                                          (abs)        000F93
_TRISC                                                          (abs)        000F94
_TRISC6                                                         (abs)        007CA6
_TRISC7                                                         (abs)        007CA7
_TRMT                                                           (abs)        007D61
_TXREG                                                          (abs)        000FAD
_TXSTA                                                          (abs)        000FAC
_Timer1_Tick_Counter                                            bssCOMRAM    000042
__CFG_BOREN$ON                                                  (abs)        000000
__CFG_CP0$ON                                                    (abs)        000000
__CFG_CP1$ON                                                    (abs)        000000
__CFG_CP2$ON                                                    (abs)        000000
__CFG_CP3$ON                                                    (abs)        000000
__CFG_CPB$ON                                                    (abs)        000000
__CFG_CPD$ON                                                    (abs)        000000
__CFG_EBTR0$ON                                                  (abs)        000000
__CFG_EBTR1$ON                                                  (abs)        000000
__CFG_EBTR2$ON                                                  (abs)        000000
__CFG_EBTR3$ON                                                  (abs)        000000
__CFG_EBTRB$ON                                                  (abs)        000000
__CFG_FCMEN$ON                                                  (abs)        000000
__CFG_HPOL$HIGH                                                 (abs)        000000
__CFG_IESO$ON                                                   (abs)        000000
__CFG_LPOL$HIGH                                                 (abs)        000000
__CFG_LVP$OFF                                                   (abs)        000000
__CFG_MCLRE$ON                                                  (abs)        000000
__CFG_OSC$HSPLL                                                 (abs)        000000
__CFG_PWMPIN$OFF                                                (abs)        000000
__CFG_PWRTEN$ON                                                 (abs)        000000
__CFG_STVREN$ON                                                 (abs)        000000
__CFG_T1OSCMX$OFF                                               (abs)        000000
__CFG_WDPS$32768                                                (abs)        000000
__CFG_WDTEN$OFF                                                 (abs)        000000
__CFG_WINEN$ON                                                  (abs)        000000
__CFG_WRT0$ON                                                   (abs)        000000
__CFG_WRT1$ON                                                   (abs)        000000
__CFG_WRT2$ON                                                   (abs)        000000
__CFG_WRT3$ON                                                   (abs)        000000
__CFG_WRTB$ON                                                   (abs)        000000
__CFG_WRTC$ON                                                   (abs)        000000
__CFG_WRTD$ON                                                   (abs)        000000
__HRAM                                                          (abs)        000000
__Habs1                                                         abs1         000000
__Hbank0                                                        bank0        000000
__Hbank1                                                        bank1        000000
__Hbank2                                                        bank2        000000
__Hbigbss                                                       bigbss       000000
__Hbigdata                                                      bigdata      000000
__Hbigram                                                       bigram       000000
__Hbss                                                          bss          000000
__HbssBANK0                                                     bssBANK0     000000
__HbssCOMRAM                                                    bssCOMRAM    000000
__Hcinit                                                        cinit        000000
__Hclrtext                                                      clrtext      000000
__Hcomram                                                       comram       000000
__Hconfig                                                       config       30000E
__Hconst                                                        const        000000
__HcstackCOMRAM                                                 cstackCOMRAM 000000
__Hdata                                                         data         000000
__HdataCOMRAM                                                   dataCOMRAM   000000
__Heeprom_data                                                  eeprom_data  000000
__Hend_init                                                     end_init     0000A8
__Hfarbss                                                       farbss       000000
__Hfardata                                                      fardata      000000
__Hibigdata                                                     ibigdata     000000
__Hidata                                                        idata        000000
__HidataCOMRAM                                                  idataCOMRAM  000000
__Hidloc                                                        idloc        200008
__Hifardata                                                     ifardata     000000
__Hinit                                                         init         0000A4
__Hintcode                                                      intcode      0000A4
__Hintcode_body                                                 intcode_body 000000
__Hintcodelo                                                    intcodelo    0000A4
__Hintentry                                                     intentry     000000
__Hintret                                                       intret       000000
__Hintsave_regs                                                 intsave_regs 000000
__Hirdata                                                       irdata       000000
__Hmediumconst                                                  mediumconst  000000
__HnvFARRAM                                                     nvFARRAM     000000
__Hnvbit                                                        nvbit        000000
__Hnvrram                                                       nvrram       000000
__Hparam                                                        rparam       000000
__Hpowerup                                                      powerup      0000A4
__Hram                                                          ram          000000
__Hramtop                                                       ramtop       000300
__Hrbit                                                         rbit         000000
__Hrbss                                                         rbss         000000
__Hrdata                                                        rdata        000000
__Hreset_vec                                                    reset_vec    000004
__Hrparam                                                       rparam       000000
__Hsfr                                                          sfr          000000
__Hsmallconst                                                   smallconst   000000
__Hspace_0                                                      (abs)        30000E
__Hspace_1                                                      (abs)        0000E8
__Hspace_2                                                      (abs)        000000
__Hstack                                                        stack        000000
__Hstruct                                                       struct       000000
__Htemp                                                         temp         00004E
__Htext                                                         text         000000
__Htext0                                                        text0        000000
__Htext1                                                        text1        000000
__Htext10                                                       text10       000000
__Htext11                                                       text11       000000
__Htext12                                                       text12       000000
__Htext13                                                       text13       000000
__Htext14                                                       text14       000000
__Htext15                                                       text15       000000
__Htext16                                                       text16       000000
__Htext17                                                       text17       000000
__Htext18                                                       text18       000000
__Htext19                                                       text19       000000
__Htext2                                                        text2        000000
__Htext20                                                       text20       000000
__Htext21                                                       text21       000000
__Htext22                                                       text22       000000
__Htext24                                                       text24       000000
__Htext25                                                       text25       000000
__Htext3                                                        text3        000000
__Htext4                                                        text4        000000
__Htext5                                                        text5        000000
__Htext6                                                        text6        000000
__Htext7                                                        text7        000000
__Htext8                                                        text8        000000
__Htext9                                                        text9        000000
__LRAM                                                          (abs)        000001
__Labs1                                                         abs1         000000
__Lbank0                                                        bank0        000000
__Lbank1                                                        bank1        000000
__Lbank2                                                        bank2        000000
__Lbigbss                                                       bigbss       000000
__Lbigdata                                                      bigdata      000000
__Lbigram                                                       bigram       000000
__Lbss                                                          bss          000000
__LbssBANK0                                                     bssBANK0     000000
__LbssCOMRAM                                                    bssCOMRAM    000000
__Lcinit                                                        cinit        000000
__Lclrtext                                                      clrtext      000000
__Lcomram                                                       comram       000000
__Lconfig                                                       config       300000
__Lconst                                                        const        000000
__LcstackCOMRAM                                                 cstackCOMRAM 000000
__Ldata                                                         data         000000
__LdataCOMRAM                                                   dataCOMRAM   000000
__Leeprom_data                                                  eeprom_data  000000
__Lend_init                                                     end_init     0000A4
__Lfarbss                                                       farbss       000000
__Lfardata                                                      fardata      000000
__Libigdata                                                     ibigdata     000000
__Lidata                                                        idata        000000
__LidataCOMRAM                                                  idataCOMRAM  000000
__Lidloc                                                        idloc        200000
__Lifardata                                                     ifardata     000000
__Linit                                                         init         0000A4
__Lintcode                                                      intcode      000008
__Lintcode_body                                                 intcode_body 000000
__Lintcodelo                                                    intcodelo    0000A4
__Lintentry                                                     intentry     000000
__Lintret                                                       intret       000000
__Lintsave_regs                                                 intsave_regs 000000
__Lirdata                                                       irdata       000000
__Lmediumconst                                                  mediumconst  000000
__LnvFARRAM                                                     nvFARRAM     000000
__Lnvbit                                                        nvbit        000000
__Lnvrram                                                       nvrram       000000
__Lparam                                                        rparam       000000
__Lpowerup                                                      powerup      0000A4
__Lram                                                          ram          000000
__Lramtop                                                       ramtop       000300
__Lrbit                                                         rbit         000000
__Lrbss                                                         rbss         000000
__Lrdata                                                        rdata        000000
__Lreset_vec                                                    reset_vec    000000
__Lrparam                                                       rparam       000000
__Lsfr                                                          sfr          000000
__Lsmallconst                                                   smallconst   000000
__Lspace_0                                                      (abs)        000000
__Lspace_1                                                      (abs)        000000
__Lspace_2                                                      (abs)        000000
__Lstack                                                        stack        000000
__Lstruct                                                       struct       000000
__Ltemp                                                         temp         00004D
__Ltext                                                         text         000000
__Ltext0                                                        text0        000000
__Ltext1                                                        text1        000000
__Ltext10                                                       text10       000000
__Ltext11                                                       text11       000000
__Ltext12                                                       text12       000000
__Ltext13                                                       text13       000000
__Ltext14                                                       text14       000000
__Ltext15                                                       text15       000000
__Ltext16                                                       text16       000000
__Ltext17                                                       text17       000000
__Ltext18                                                       text18       000000
__Ltext19                                                       text19       000000
__Ltext2                                                        text2        000000
__Ltext20                                                       text20       000000
__Ltext21                                                       text21       000000
__Ltext22                                                       text22       000000
__Ltext24                                                       text24       000000
__Ltext25                                                       text25       000000
__Ltext3                                                        text3        000000
__Ltext4                                                        text4        000000
__Ltext5                                                        text5        000000
__Ltext6                                                        text6        000000
__Ltext7                                                        text7        000000
__Ltext8                                                        text8        000000
__Ltext9                                                        text9        000000
__S0                                                            (abs)        30000E
__S1                                                            (abs)        0000E8
__S2                                                            (abs)        000000
___inthi_sp                                                     stack        000000
___intlo_sp                                                     stack        000000
___param_bank                                                   (abs)        000010
___rparam_used                                                  (abs)        000001
___sp                                                           stack        000000
__accesstop                                                     (abs)        000060
__activetblptr                                                  (abs)        000002
__end_of_CheckPetitModbusBufferComplete                         text9        000680
__end_of_HandleMPetitodbusWriteMultipleRegisters                text13       000318
__end_of_HandlePetitModbusError                                 text14       000908
__end_of_HandlePetitModbusReadHoldingRegisters                  text12       000416
__end_of_HandlePetitModbusWriteSingleRegister                   text11       000730
__end_of_InitIO                                                 text22       00093C
__end_of_InitOSC                                                text21       0009B0
__end_of_InitPetitModbus                                        text16       00098E
__end_of_InitTMR1                                               text20       000954
__end_of_InitUART                                               text18       00096A
__end_of_PetitModBus_TIMER_Initialise                           text19       0009BC
__end_of_PetitModBus_TimerValues                                text25       0009C2
__end_of_PetitModBus_UART_Initialise                            text17       0009B6
__end_of_PetitModBus_UART_Putch                                 text5        00099A
__end_of_PetitModBus_UART_String                                text4        0008A0
__end_of_PetitSendMessage                                       text15       00097E
__end_of_Petit_CRC16                                            text8        0007D8
__end_of_Petit_CheckRxTimeout                                   text7        000922
__end_of_Petit_DoSlaveTX                                        text3        0008EA
__end_of_Petit_RxDataAvailable                                  text10       0009A6
__end_of_Petit_RxRTU                                            text6        0001F0
__end_of_Petit_TxRTU                                            text2        0004F4
__end_of_ProcessPetitModbus                                     text1        00082C
__end_of_ReceiveInterrupt                                       text24       0008CC
__end_of__initialization                                        cinit        000864
__end_of_main                                                   text0        0005D0
__end_of_tc_int                                                 intcode      0000A4
__initialization                                                cinit        00082C
__mediumconst                                                   mediumconst  000000
__pbssBANK0                                                     bssBANK0     000060
__pbssCOMRAM                                                    bssCOMRAM    000026
__pcinit                                                        cinit        00082C
__pcstackCOMRAM                                                 cstackCOMRAM 000001
__pdataCOMRAM                                                   dataCOMRAM   000048
__pidataCOMRAM                                                  idataCOMRAM  0009C2
__pintcode                                                      intcode      000008
__ptext0                                                        text0        0004F4
__ptext1                                                        text1        0007D8
__ptext10                                                       text10       00099A
__ptext11                                                       text11       000680
__ptext12                                                       text12       000318
__ptext13                                                       text13       0001F0
__ptext14                                                       text14       0008EA
__ptext15                                                       text15       00096A
__ptext16                                                       text16       00097E
__ptext17                                                       text17       0009B0
__ptext18                                                       text18       000954
__ptext19                                                       text19       0009B6
__ptext2                                                        text2        000416
__ptext20                                                       text20       00093C
__ptext21                                                       text21       0009A6
__ptext22                                                       text22       000922
__ptext24                                                       text24       0008A0
__ptext25                                                       text25       0009BC
__ptext3                                                        text3        0008CC
__ptext4                                                        text4        000872
__ptext5                                                        text5        00098E
__ptext6                                                        text6        0000A8
__ptext7                                                        text7        000908
__ptext8                                                        text8        000730
__ptext9                                                        text9        0005D0
__ramtop                                                        ramtop       000300
__size_of_CheckPetitModbusBufferComplete                        (abs)        000000
__size_of_HandleMPetitodbusWriteMultipleRegisters               (abs)        000000
__size_of_HandlePetitModbusError                                (abs)        000000
__size_of_HandlePetitModbusReadHoldingRegisters                 (abs)        000000
__size_of_HandlePetitModbusWriteSingleRegister                  (abs)        000000
__size_of_InitIO                                                (abs)        000000
__size_of_InitOSC                                               (abs)        000000
__size_of_InitPetitModbus                                       (abs)        000000
__size_of_InitTMR1                                              (abs)        000000
__size_of_InitUART                                              (abs)        000000
__size_of_PetitModBus_TIMER_Initialise                          (abs)        000000
__size_of_PetitModBus_TimerValues                               (abs)        000000
__size_of_PetitModBus_UART_Initialise                           (abs)        000000
__size_of_PetitModBus_UART_Putch                                (abs)        000000
__size_of_PetitModBus_UART_String                               (abs)        000000
__size_of_PetitSendMessage                                      (abs)        000000
__size_of_Petit_CRC16                                           (abs)        000000
__size_of_Petit_CheckRxTimeout                                  (abs)        000000
__size_of_Petit_DoSlaveTX                                       (abs)        000000
__size_of_Petit_RxDataAvailable                                 (abs)        000000
__size_of_Petit_RxRTU                                           (abs)        000000
__size_of_Petit_TxRTU                                           (abs)        000000
__size_of_ProcessPetitModbus                                    (abs)        000000
__size_of_ReceiveInterrupt                                      (abs)        000000
__size_of_main                                                  (abs)        000000
__size_of_tc_int                                                (abs)        000000
__smallconst                                                    smallconst   000000
_main                                                           text0        0004F4
_tc_int                                                         intcode      000008
btemp                                                           temp         00004D
end_of_initialization                                           cinit        000864
int$flags                                                       temp         00004D
intlevel0                                                       text         000000
intlevel1                                                       text         000000
intlevel2                                                       text         000000
intlevel3                                                       text         000000
stackhi                                                         (abs)        0002FF
stacklo                                                         (abs)        0000E8
start                                                           init         0000A4
start_initialization                                            cinit        00082C


FUNCTION INFORMATION:

 *************** function _main *****************
 Defined at:
		line 3 in file "Source/main.c"
 Parameters:    Size  Location     Type
		None
 Auto vars:     Size  Location     Type
		None
 Return value:  Size  Location     Type
                  2  275[None  ] int 
 Registers used:
		wreg, fsr1l, fsr1h, fsr2l, fsr2h, status,2, status,0, prodl, prodh, cstack
 Tracked objects:
		On entry : 
		On exit  : 
		Unchanged: 
 Data sizes:     COMRAM   BANK0   BANK1   BANK2
      Params:         0       0       0       0
      Locals:         0       0       0       0
      Temps:          2       0       0       0
      Totals:         2       0       0       0
Total ram usage:        2 bytes
 Hardware stack levels required when called:    7
 This function calls:
		_InitIO
		_InitOSC
		_InitPetitModbus
		_ProcessPetitModbus
 This function is called by:
		Startup code after reset
 This function uses a non-reentrant model


 *************** function _ProcessPetitModbus *****************
 Defined at:
		line 428 in file "PetitModbus/PetitModbus.c"
 Parameters:    Size  Location     Type
		None
 Auto vars:     Size  Location     Type
		None
 Return value:  Size  Location     Type
                  1    wreg      void 
 Registers used:
		wreg, fsr1l, fsr1h, fsr2l, fsr2h, status,2, status,0, prodl, prodh, cstack
 Tracked objects:
		On entry : 
		On exit  : 
		Unchanged: 
 Data sizes:     COMRAM   BANK0   BANK1   BANK2
      Params:         0       0       0       0
      Locals:         0       0       0       0
      Temps:          0       0       0       0
      Totals:         0       0       0       0
Total ram usage:        0 bytes
 Hardware stack levels used:    1
 Hardware stack levels required when called:    6
 This function calls:
		_HandleMPetitodbusWriteMultipleRegisters
		_HandlePetitModbusError
		_HandlePetitModbusReadHoldingRegisters
		_HandlePetitModbusWriteSingleRegister
		_Petit_RxDataAvailable
		_Petit_RxRTU
		_Petit_TxRTU
 This function is called by:
		_main
 This function uses a non-reentrant model


 *************** function _Petit_TxRTU *****************
 Defined at:
		line 399 in file "PetitModbus/PetitModbus.c"
 Parameters:    Size  Location     Type
		None
 Auto vars:     Size  Location     Type
		None
 Return value:  Size  Location     Type
                  1    wreg      void 
 Registers used:
		wreg, fsr1l, fsr1h, fsr2l, fsr2h, status,2, status,0, cstack
 Tracked objects:
		On entry : 
		On exit  : 
		Unchanged: 
 Data sizes:     COMRAM   BANK0   BANK1   BANK2
      Params:         0       0       0       0
      Locals:         0       0       0       0
      Temps:          0       0       0       0
      Totals:         0       0       0       0
Total ram usage:        0 bytes
 Hardware stack levels used:    1
 Hardware stack levels required when called:    5
 This function calls:
		_Petit_CRC16
		_Petit_DoSlaveTX
 This function is called by:
		_ProcessPetitModbus
 This function uses a non-reentrant model


 *************** function _Petit_DoSlaveTX *****************
 Defined at:
		line 86 in file "PetitModbus/PetitModbus.c"
 Parameters:    Size  Location     Type
		None
 Auto vars:     Size  Location     Type
		None
 Return value:  Size  Location     Type
                  1    wreg      unsigned char 
 Registers used:
		wreg, fsr2l, fsr2h, status,2, status,0, cstack
 Tracked objects:
		On entry : 
		On exit  : 
		Unchanged: 
 Data sizes:     COMRAM   BANK0   BANK1   BANK2
      Params:         0       0       0       0
      Locals:         0       0       0       0
      Temps:          0       0       0       0
      Totals:         0       0       0       0
Total ram usage:        0 bytes
 Hardware stack levels used:    1
 Hardware stack levels required when called:    4
 This function calls:
		_PetitModBus_UART_String
 This function is called by:
		_Petit_TxRTU
 This function uses a non-reentrant model


 *************** function _PetitModBus_UART_String *****************
 Defined at:
		line 29 in file "PetitModbus/PetitModbusPort.c"
 Parameters:    Size  Location     Type
  s               2   16[COMRAM] PTR unsigned char 
		 -> Petit_Tx_Buf(32), 
  Length          2   18[COMRAM] unsigned int 
 Auto vars:     Size  Location     Type
  DummyCounter    2   20[COMRAM] unsigned short 
 Return value:  Size  Location     Type
                  1    wreg      unsigned char 
 Registers used:
		wreg, fsr2l, fsr2h, status,2, status,0, cstack
 Tracked objects:
		On entry : 
		On exit  : 
		Unchanged: 
 Data sizes:     COMRAM   BANK0   BANK1   BANK2
      Params:         4       0       0       0
      Locals:         2       0       0       0
      Temps:          0       0       0       0
      Totals:         6       0       0       0
Total ram usage:        6 bytes
 Hardware stack levels used:    1
 Hardware stack levels required when called:    3
 This function calls:
		_PetitModBus_UART_Putch
 This function is called by:
		_Petit_DoSlaveTX
 This function uses a non-reentrant model


 *************** function _PetitModBus_UART_Putch *****************
 Defined at:
		line 22 in file "PetitModbus/PetitModbusPort.c"
 Parameters:    Size  Location     Type
  c               1    wreg     unsigned char 
 Auto vars:     Size  Location     Type
  c               1   15[COMRAM] unsigned char 
 Return value:  Size  Location     Type
                  1    wreg      void 
 Registers used:
		wreg
 Tracked objects:
		On entry : 
		On exit  : 
		Unchanged: 
 Data sizes:     COMRAM   BANK0   BANK1   BANK2
      Params:         0       0       0       0
      Locals:         1       0       0       0
      Temps:          0       0       0       0
      Totals:         1       0       0       0
Total ram usage:        1 bytes
 Hardware stack levels used:    1
 Hardware stack levels required when called:    2
 This function calls:
		Nothing
 This function is called by:
		_PetitModBus_UART_String
 This function uses a non-reentrant model


 *************** function _Petit_RxRTU *****************
 Defined at:
		line 347 in file "PetitModbus/PetitModbus.c"
 Parameters:    Size  Location     Type
		None
 Auto vars:     Size  Location     Type
  Petit_i         1   34[COMRAM] unsigned char 
  Petit_Receiv    1   33[COMRAM] unsigned char 
 Return value:  Size  Location     Type
                  1    wreg      void 
 Registers used:
		wreg, fsr1l, fsr1h, fsr2l, fsr2h, status,2, status,0, prodl, prodh, cstack
 Tracked objects:
		On entry : 
		On exit  : 
		Unchanged: 
 Data sizes:     COMRAM   BANK0   BANK1   BANK2
      Params:         0       0       0       0
      Locals:         2       0       0       0
      Temps:          7       0       0       0
      Totals:         9       0       0       0
Total ram usage:        9 bytes
 Hardware stack levels used:    1
 Hardware stack levels required when called:    3
 This function calls:
		_CheckPetitModbusBufferComplete
		_Petit_CRC16
		_Petit_CheckRxTimeout
 This function is called by:
		_ProcessPetitModbus
 This function uses a non-reentrant model


 *************** function _Petit_CheckRxTimeout *****************
 Defined at:
		line 280 in file "PetitModbus/PetitModbus.c"
 Parameters:    Size  Location     Type
		None
 Auto vars:     Size  Location     Type
		None
 Return value:  Size  Location     Type
                  1    wreg      unsigned char 
 Registers used:
		wreg, status,2, status,0
 Tracked objects:
		On entry : 
		On exit  : 
		Unchanged: 
 Data sizes:     COMRAM   BANK0   BANK1   BANK2
      Params:         0       0       0       0
      Locals:         0       0       0       0
      Temps:          0       0       0       0
      Totals:         0       0       0       0
Total ram usage:        0 bytes
 Hardware stack levels used:    1
 Hardware stack levels required when called:    2
 This function calls:
		Nothing
 This function is called by:
		_Petit_RxRTU
 This function uses a non-reentrant model


 *************** function _Petit_CRC16 *****************
 Defined at:
		line 65 in file "PetitModbus/PetitModbus.c"
 Parameters:    Size  Location     Type
  Data            1    wreg     const unsigned char 
  CRC             2   15[COMRAM] PTR unsigned int 
		 -> Petit_Tx_CRC16(2), Petit_Rx_CRC16(2), 
 Auto vars:     Size  Location     Type
  Data            1   23[COMRAM] const unsigned char 
  i               2   24[COMRAM] unsigned int 
 Return value:  Size  Location     Type
                  1    wreg      void 
 Registers used:
		wreg, fsr2l, fsr2h, status,2, status,0
 Tracked objects:
		On entry : 
		On exit  : 
		Unchanged: 
 Data sizes:     COMRAM   BANK0   BANK1   BANK2
      Params:         2       0       0       0
      Locals:         3       0       0       0
      Temps:          6       0       0       0
      Totals:        11       0       0       0
Total ram usage:       11 bytes
 Hardware stack levels used:    1
 Hardware stack levels required when called:    2
 This function calls:
		Nothing
 This function is called by:
		_Petit_RxRTU
		_Petit_TxRTU
 This function uses a non-reentrant model


 *************** function _CheckPetitModbusBufferComplete *****************
 Defined at:
		line 302 in file "PetitModbus/PetitModbus.c"
 Parameters:    Size  Location     Type
		None
 Auto vars:     Size  Location     Type
  PetitExpecte    2   17[COMRAM] int 
 Return value:  Size  Location     Type
                  1    wreg      unsigned char 
 Registers used:
		wreg, status,2, status,0
 Tracked objects:
		On entry : 
		On exit  : 
		Unchanged: 
 Data sizes:     COMRAM   BANK0   BANK1   BANK2
      Params:         0       0       0       0
      Locals:         2       0       0       0
      Temps:          2       0       0       0
      Totals:         4       0       0       0
Total ram usage:        4 bytes
 Hardware stack levels used:    1
 Hardware stack levels required when called:    2
 This function calls:
		Nothing
 This function is called by:
		_Petit_RxRTU
 This function uses a non-reentrant model


 *************** function _Petit_RxDataAvailable *****************
 Defined at:
		line 264 in file "PetitModbus/PetitModbus.c"
 Parameters:    Size  Location     Type
		None
 Auto vars:     Size  Location     Type
  Result          1   15[COMRAM] unsigned char 
 Return value:  Size  Location     Type
                  1    wreg      unsigned char 
 Registers used:
		wreg, status,2
 Tracked objects:
		On entry : 
		On exit  : 
		Unchanged: 
 Data sizes:     COMRAM   BANK0   BANK1   BANK2
      Params:         0       0       0       0
      Locals:         1       0       0       0
      Temps:          0       0       0       0
      Totals:         1       0       0       0
Total ram usage:        1 bytes
 Hardware stack levels used:    1
 Hardware stack levels required when called:    2
 This function calls:
		Nothing
 This function is called by:
		_ProcessPetitModbus
 This function uses a non-reentrant model


 *************** function _HandlePetitModbusWriteSingleRegister *****************
 Defined at:
		line 180 in file "PetitModbus/PetitModbus.c"
 Parameters:    Size  Location     Type
		None
 Auto vars:     Size  Location     Type
  Petit_Addres    2   20[COMRAM] unsigned int 
  Petit_Value     2   18[COMRAM] unsigned int 
  Petit_i         1   22[COMRAM] unsigned char 
 Return value:  Size  Location     Type
                  1    wreg      void 
 Registers used:
		wreg, fsr1l, fsr1h, fsr2l, fsr2h, status,2, status,0, prodl, prodh, cstack
 Tracked objects:
		On entry : 
		On exit  : 
		Unchanged: 
 Data sizes:     COMRAM   BANK0   BANK1   BANK2
      Params:         0       0       0       0
      Locals:         5       0       0       0
      Temps:          2       0       0       0
      Totals:         7       0       0       0
Total ram usage:        7 bytes
 Hardware stack levels used:    1
 Hardware stack levels required when called:    4
 This function calls:
		_HandlePetitModbusError
		_PetitSendMessage
 This function is called by:
		_ProcessPetitModbus
 This function uses a non-reentrant model


 *************** function _HandlePetitModbusReadHoldingRegisters *****************
 Defined at:
		line 134 in file "PetitModbus/PetitModbus.c"
 Parameters:    Size  Location     Type
		None
 Auto vars:     Size  Location     Type
  Petit_Curren    2   18[COMRAM] unsigned short 
  Petit_i         2   24[COMRAM] unsigned int 
  Petit_Number    2   22[COMRAM] unsigned int 
  Petit_StartA    2   20[COMRAM] unsigned int 
 Return value:  Size  Location     Type
                  1    wreg      void 
 Registers used:
		wreg, fsr2l, fsr2h, status,2, status,0, cstack
 Tracked objects:
		On entry : 
		On exit  : 
		Unchanged: 
 Data sizes:     COMRAM   BANK0   BANK1   BANK2
      Params:         0       0       0       0
      Locals:         8       0       0       0
      Temps:          2       0       0       0
      Totals:        10       0       0       0
Total ram usage:       10 bytes
 Hardware stack levels used:    1
 Hardware stack levels required when called:    4
 This function calls:
		_HandlePetitModbusError
		_PetitSendMessage
 This function is called by:
		_ProcessPetitModbus
 This function uses a non-reentrant model


 *************** function _HandleMPetitodbusWriteMultipleRegisters *****************
 Defined at:
		line 217 in file "PetitModbus/PetitModbus.c"
 Parameters:    Size  Location     Type
		None
 Auto vars:     Size  Location     Type
  Petit_Number    2   29[COMRAM] unsigned int 
  Petit_StartA    2   27[COMRAM] unsigned int 
  Petit_Value     2   25[COMRAM] unsigned int 
  Petit_i         1   31[COMRAM] unsigned char 
  Petit_ByteCo    1   24[COMRAM] unsigned char 
 Return value:  Size  Location     Type
                  1    wreg      void 
 Registers used:
		wreg, fsr2l, fsr2h, status,2, status,0, cstack
 Tracked objects:
		On entry : 
		On exit  : 
		Unchanged: 
 Data sizes:     COMRAM   BANK0   BANK1   BANK2
      Params:         0       0       0       0
      Locals:         8       0       0       0
      Temps:          8       0       0       0
      Totals:        16       0       0       0
Total ram usage:       16 bytes
 Hardware stack levels used:    1
 Hardware stack levels required when called:    4
 This function calls:
		_HandlePetitModbusError
		_PetitSendMessage
 This function is called by:
		_ProcessPetitModbus
 This function uses a non-reentrant model


 *************** function _HandlePetitModbusError *****************
 Defined at:
		line 118 in file "PetitModbus/PetitModbus.c"
 Parameters:    Size  Location     Type
  ErrorCode       1    wreg     unsigned char 
 Auto vars:     Size  Location     Type
  ErrorCode       1   15[COMRAM] unsigned char 
 Return value:  Size  Location     Type
                  1    wreg      void 
 Registers used:
		wreg, status,2, status,0, cstack
 Tracked objects:
		On entry : 
		On exit  : 
		Unchanged: 
 Data sizes:     COMRAM   BANK0   BANK1   BANK2
      Params:         0       0       0       0
      Locals:         1       0       0       0
      Temps:          0       0       0       0
      Totals:         1       0       0       0
Total ram usage:        1 bytes
 Hardware stack levels used:    1
 Hardware stack levels required when called:    3
 This function calls:
		_PetitSendMessage
 This function is called by:
		_HandlePetitModbusReadHoldingRegisters
		_HandlePetitModbusWriteSingleRegister
		_HandleMPetitodbusWriteMultipleRegisters
		_ProcessPetitModbus
 This function uses a non-reentrant model


 *************** function _PetitSendMessage *****************
 Defined at:
		line 101 in file "PetitModbus/PetitModbus.c"
 Parameters:    Size  Location     Type
		None
 Auto vars:     Size  Location     Type
		None
 Return value:  Size  Location     Type
                  1    wreg      unsigned char 
 Registers used:
		wreg, status,2
 Tracked objects:
		On entry : 
		On exit  : 
		Unchanged: 
 Data sizes:     COMRAM   BANK0   BANK1   BANK2
      Params:         0       0       0       0
      Locals:         0       0       0       0
      Temps:          0       0       0       0
      Totals:         0       0       0       0
Total ram usage:        0 bytes
 Hardware stack levels used:    1
 Hardware stack levels required when called:    2
 This function calls:
		Nothing
 This function is called by:
		_HandlePetitModbusError
		_HandlePetitModbusReadHoldingRegisters
		_HandlePetitModbusWriteSingleRegister
		_HandleMPetitodbusWriteMultipleRegisters
 This function uses a non-reentrant model


 *************** function _InitPetitModbus *****************
 Defined at:
		line 462 in file "PetitModbus/PetitModbus.c"
 Parameters:    Size  Location     Type
  PetitModbusS    1    wreg     unsigned char 
 Auto vars:     Size  Location     Type
  PetitModbusS    1   15[COMRAM] unsigned char 
 Return value:  Size  Location     Type
                  1    wreg      void 
 Registers used:
		wreg, status,2, cstack
 Tracked objects:
		On entry : 
		On exit  : 
		Unchanged: 
 Data sizes:     COMRAM   BANK0   BANK1   BANK2
      Params:         0       0       0       0
      Locals:         1       0       0       0
      Temps:          0       0       0       0
      Totals:         1       0       0       0
Total ram usage:        1 bytes
 Hardware stack levels used:    1
 Hardware stack levels required when called:    4
 This function calls:
		_PetitModBus_TIMER_Initialise
		_PetitModBus_UART_Initialise
 This function is called by:
		_main
 This function uses a non-reentrant model


 *************** function _PetitModBus_UART_Initialise *****************
 Defined at:
		line 10 in file "PetitModbus/PetitModbusPort.c"
 Parameters:    Size  Location     Type
		None
 Auto vars:     Size  Location     Type
		None
 Return value:  Size  Location     Type
                  1    wreg      void 
 Registers used:
		wreg, status,2, cstack
 Tracked objects:
		On entry : 
		On exit  : 
		Unchanged: 
 Data sizes:     COMRAM   BANK0   BANK1   BANK2
      Params:         0       0       0       0
      Locals:         0       0       0       0
      Temps:          0       0       0       0
      Totals:         0       0       0       0
Total ram usage:        0 bytes
 Hardware stack levels used:    1
 Hardware stack levels required when called:    3
 This function calls:
		_InitUART
 This function is called by:
		_InitPetitModbus
 This function uses a non-reentrant model


 *************** function _InitUART *****************
 Defined at:
		line 81 in file "Init/Init.c"
 Parameters:    Size  Location     Type
		None
 Auto vars:     Size  Location     Type
		None
 Return value:  Size  Location     Type
                  1    wreg      void 
 Registers used:
		wreg, status,2
 Tracked objects:
		On entry : 
		On exit  : 
		Unchanged: 
 Data sizes:     COMRAM   BANK0   BANK1   BANK2
      Params:         0       0       0       0
      Locals:         0       0       0       0
      Temps:          0       0       0       0
      Totals:         0       0       0       0
Total ram usage:        0 bytes
 Hardware stack levels used:    1
 Hardware stack levels required when called:    2
 This function calls:
		Nothing
 This function is called by:
		_PetitModBus_UART_Initialise
 This function uses a non-reentrant model


 *************** function _PetitModBus_TIMER_Initialise *****************
 Defined at:
		line 16 in file "PetitModbus/PetitModbusPort.c"
 Parameters:    Size  Location     Type
		None
 Auto vars:     Size  Location     Type
		None
 Return value:  Size  Location     Type
                  1    wreg      void 
 Registers used:
		wreg, status,2, cstack
 Tracked objects:
		On entry : 
		On exit  : 
		Unchanged: 
 Data sizes:     COMRAM   BANK0   BANK1   BANK2
      Params:         0       0       0       0
      Locals:         0       0       0       0
      Temps:          0       0       0       0
      Totals:         0       0       0       0
Total ram usage:        0 bytes
 Hardware stack levels used:    1
 Hardware stack levels required when called:    3
 This function calls:
		_InitTMR1
 This function is called by:
		_InitPetitModbus
 This function uses a non-reentrant model


 *************** function _InitTMR1 *****************
 Defined at:
		line 95 in file "Init/Init.c"
 Parameters:    Size  Location     Type
		None
 Auto vars:     Size  Location     Type
		None
 Return value:  Size  Location     Type
                  1    wreg      void 
 Registers used:
		wreg, status,2
 Tracked objects:
		On entry : 
		On exit  : 
		Unchanged: 
 Data sizes:     COMRAM   BANK0   BANK1   BANK2
      Params:         0       0       0       0
      Locals:         0       0       0       0
      Temps:          0       0       0       0
      Totals:         0       0       0       0
Total ram usage:        0 bytes
 Hardware stack levels used:    1
 Hardware stack levels required when called:    2
 This function calls:
		Nothing
 This function is called by:
		_PetitModBus_TIMER_Initialise
 This function uses a non-reentrant model


 *************** function _InitOSC *****************
 Defined at:
		line 60 in file "Init/Init.c"
 Parameters:    Size  Location     Type
		None
 Auto vars:     Size  Location     Type
		None
 Return value:  Size  Location     Type
                  1    wreg      void 
 Registers used:
		wreg, status,2
 Tracked objects:
		On entry : 
		On exit  : 
		Unchanged: 
 Data sizes:     COMRAM   BANK0   BANK1   BANK2
      Params:         0       0       0       0
      Locals:         0       0       0       0
      Temps:          0       0       0       0
      Totals:         0       0       0       0
Total ram usage:        0 bytes
 Hardware stack levels used:    1
 Hardware stack levels required when called:    2
 This function calls:
		Nothing
 This function is called by:
		_main
 This function uses a non-reentrant model


 *************** function _InitIO *****************
 Defined at:
		line 67 in file "Init/Init.c"
 Parameters:    Size  Location     Type
		None
 Auto vars:     Size  Location     Type
		None
 Return value:  Size  Location     Type
                  1    wreg      void 
 Registers used:
		wreg, status,2
 Tracked objects:
		On entry : 
		On exit  : 
		Unchanged: 
 Data sizes:     COMRAM   BANK0   BANK1   BANK2
      Params:         0       0       0       0
      Locals:         0       0       0       0
      Temps:          0       0       0       0
      Totals:         0       0       0       0
Total ram usage:        0 bytes
 Hardware stack levels used:    1
 Hardware stack levels required when called:    2
 This function calls:
		Nothing
 This function is called by:
		_main
 This function uses a non-reentrant model


 *************** function _tc_int *****************
 Defined at:
		line 3 in file "Interrupts/Interrupts.c"
 Parameters:    Size  Location     Type
		None
 Auto vars:     Size  Location     Type
		None
 Return value:  Size  Location     Type
                  1    wreg      void 
 Registers used:
		wreg, fsr2l, fsr2h, status,2, status,0, prodl, prodh, cstack
 Tracked objects:
		On entry : 
		On exit  : 
		Unchanged: 
 Data sizes:     COMRAM   BANK0   BANK1   BANK2
      Params:         0       0       0       0
      Locals:         0       0       0       0
      Temps:         14       0       0       0
      Totals:        14       0       0       0
Total ram usage:       14 bytes
 Hardware stack levels used:    1
 Hardware stack levels required when called:    1
 This function calls:
		_PetitModBus_TimerValues
		_ReceiveInterrupt
 This function is called by:
		Interrupt level 2
 This function uses a non-reentrant model


 *************** function _ReceiveInterrupt *****************
 Defined at:
		line 42 in file "PetitModbus/PetitModbusPort.c"
 Parameters:    Size  Location     Type
  Data            1    wreg     unsigned char 
 Auto vars:     Size  Location     Type
  Data            1    0[COMRAM] unsigned char 
 Return value:  Size  Location     Type
                  1    wreg      void 
 Registers used:
		wreg, fsr2l, fsr2h, status,2, status,0, prodl, prodh
 Tracked objects:
		On entry : 
		On exit  : 
		Unchanged: 
 Data sizes:     COMRAM   BANK0   BANK1   BANK2
      Params:         0       0       0       0
      Locals:         1       0       0       0
      Temps:          0       0       0       0
      Totals:         1       0       0       0
Total ram usage:        1 bytes
 Hardware stack levels used:    1
 This function calls:
		Nothing
 This function is called by:
		_tc_int
 This function uses a non-reentrant model


 *************** function _PetitModBus_TimerValues *****************
 Defined at:
		line 54 in file "PetitModbus/PetitModbusPort.c"
 Parameters:    Size  Location     Type
		None
 Auto vars:     Size  Location     Type
		None
 Return value:  Size  Location     Type
                  1    wreg      void 
 Registers used:
		status,2, status,0
 Tracked objects:
		On entry : 
		On exit  : 
		Unchanged: 
 Data sizes:     COMRAM   BANK0   BANK1   BANK2
      Params:         0       0       0       0
      Locals:         0       0       0       0
      Temps:          0       0       0       0
      Totals:         0       0       0       0
Total ram usage:        0 bytes
 Hardware stack levels used:    1
 This function calls:
		Nothing
 This function is called by:
		_tc_int
 This function uses a non-reentrant model



MODULE INFORMATION

Module		Function		Class		Link	Load	Size
PetitModbus/PetitModbusPort.c
		_PetitModBus_UART_String		CODE           	0872	0000	47
		_PetitModBus_UART_Putch		CODE           	098E	0000	13
		_ReceiveInterrupt		CODE           	08A0	0000	45
		_PetitModBus_TIMER_Initialise		CODE           	09B6	0000	7
		_PetitModBus_TimerValues		CODE           	09BC	0000	7
		_PetitModBus_UART_Initialise		CODE           	09B0	0000	7

PetitModbus/PetitModbusPort.c estimated size: 126

shared
		__initialization		CODE           	082C	0000	57

shared estimated size: 57

Init/Init.c
		_InitTMR1      		CODE           	093C	0000	25
		_InitUART      		CODE           	0954	0000	23
		_InitIO        		CODE           	0922	0000	27
		_InitOSC       		CODE           	09A6	0000	11

Init/Init.c estimated size: 86

Source/main.c
		_main          		CODE           	04F4	0000	221

Source/main.c estimated size: 221

PetitModbus/PetitModbus.c
		_Petit_DoSlaveTX		CODE           	08CC	0000	31
		_Petit_RxRTU   		CODE           	00A8	0000	329
		_PetitSendMessage		CODE           	096A	0000	21
		_Petit_RxDataAvailable		CODE           	099A	0000	13
		_Petit_CheckRxTimeout		CODE           	0908	0000	27
		_HandleMPetitodbusWriteMultipleRegisters		CODE           	01F0	0000	297
		_HandlePetitModbusError		CODE           	08EA	0000	31
		_ProcessPetitModbus		CODE           	07D8	0000	85
		_HandlePetitModbusReadHoldingRegisters		CODE           	0318	0000	255
		_Petit_TxRTU   		CODE           	0416	0000	223
		_HandlePetitModbusWriteSingleRegister		CODE           	0680	0000	177
		_InitPetitModbus		CODE           	097E	0000	17
		_CheckPetitModbusBufferComplete		CODE           	05D0	0000	177
		_Petit_CRC16   		CODE           	0730	0000	169

PetitModbus/PetitModbus.c estimated size: 1852

Interrupts/Interrupts.c
		_tc_int        		CODE           	0008	0000	157

Interrupts/Interrupts.c estimated size: 157

